(dp0
S'count'
p1
S'4'
p2
sS'aps'
p3
(lp4
(dp5
S'opn'
p6
S'wpa'
p7
sS'password'
p8
S'12345678'
p9
sS'ssid'
p10
S'ssssssssssssssssflasjfladsjlkfjl'
p11
sa(dp12
g6
g7
sg8
g9
sg10
S'mulwifi2'
p13
sasS'channel'
p14
S'2'
p15
s.